target datalayout = "e-m:e-p270:32:32-p271:32:32-p272:64:64-i64:64-i128:128-f80:128-n8:16:32:64-S128"
target triple = "x86_64-pc-linux-gnu"

%"struct.boost::stacktrace::detail::unwind_state" = type { i64, ptr, ptr }

; Function Attrs: mustprogress noinline nounwind uwtable
define noundef i64 @_ZN5boost10stacktrace6detail18this_thread_frames7collectEPPKvmm(ptr noundef %0, i64 noundef %1, i64 noundef %2) #4 align 2 personality ptr @__gxx_personality_v0 {
  %4 = alloca i64, align 8
  %5 = alloca ptr, align 8
  %6 = alloca i64, align 8
  %7 = alloca i64, align 8
  %8 = alloca i64, align 8
  %9 = alloca i32, align 4
  %10 = alloca %"struct.boost::stacktrace::detail::unwind_state", align 8
  store ptr %0, ptr %5, align 8, !tbaa !7
  store i64 %1, ptr %6, align 8, !tbaa !9
  store i64 %2, ptr %7, align 8, !tbaa !9
  call void @llvm.lifetime.start.p0(i64 8, ptr %8) #19
  store i64 0, ptr %8, align 8, !tbaa !9
  %11 = load i64, ptr %6, align 8, !tbaa !9
  %12 = icmp ne i64 %11, 0
  br i1 %12, label %15, label %13

13:                                               ; preds = %3
  %14 = load i64, ptr %8, align 8, !tbaa !9
  store i64 %14, ptr %4, align 8
  store i32 1, ptr %9, align 4
  br label %49

15:                                               ; preds = %3
  %16 = load i64, ptr %7, align 8, !tbaa !9
  %17 = add i64 %16, 1
  store i64 %17, ptr %7, align 8, !tbaa !9
  call void @llvm.lifetime.start.p0(i64 24, ptr %10) #19
  %18 = getelementptr inbounds nuw %"struct.boost::stacktrace::detail::unwind_state", ptr %10, i32 0, i32 0
  %19 = load i64, ptr %7, align 8, !tbaa !9
  store i64 %19, ptr %18, align 8, !tbaa !11
  %20 = getelementptr inbounds nuw %"struct.boost::stacktrace::detail::unwind_state", ptr %10, i32 0, i32 1
  %21 = load ptr, ptr %5, align 8, !tbaa !7
  store ptr %21, ptr %20, align 8, !tbaa !13
  %22 = getelementptr inbounds nuw %"struct.boost::stacktrace::detail::unwind_state", ptr %10, i32 0, i32 2
  %23 = load ptr, ptr %5, align 8, !tbaa !7
  %24 = load i64, ptr %6, align 8, !tbaa !9
  %25 = getelementptr inbounds nuw ptr, ptr %23, i64 %24
  store ptr %25, ptr %22, align 8, !tbaa !14
  %26 = invoke i32 @_Unwind_Backtrace(ptr noundef @_ZN5boost10stacktrace6detail15unwind_callbackEP15_Unwind_ContextPv, ptr noundef %10)
          to label %27 unwind label %51

27:                                               ; preds = %15
  %28 = getelementptr inbounds nuw %"struct.boost::stacktrace::detail::unwind_state", ptr %10, i32 0, i32 1
  %29 = load ptr, ptr %28, align 8, !tbaa !13
  %30 = load ptr, ptr %5, align 8, !tbaa !7
  %31 = ptrtoint ptr %29 to i64
  %32 = ptrtoint ptr %30 to i64
  %33 = sub i64 %31, %32
  %34 = sdiv exact i64 %33, 8
  store i64 %34, ptr %8, align 8, !tbaa !9
  %35 = load i64, ptr %8, align 8, !tbaa !9
  %36 = icmp ne i64 %35, 0
  br i1 %36, label %37, label %47

37:                                               ; preds = %27
  %38 = load ptr, ptr %5, align 8, !tbaa !7
  %39 = load i64, ptr %8, align 8, !tbaa !9
  %40 = sub i64 %39, 1
  %41 = getelementptr inbounds nuw ptr, ptr %38, i64 %40
  %42 = load ptr, ptr %41, align 8, !tbaa !7
  %43 = icmp eq ptr %42, null
  br i1 %43, label %44, label %47

44:                                               ; preds = %37
  %45 = load i64, ptr %8, align 8, !tbaa !9
  %46 = add i64 %45, -1
  store i64 %46, ptr %8, align 8, !tbaa !9
  br label %47

47:                                               ; preds = %44, %37, %27
  %48 = load i64, ptr %8, align 8, !tbaa !9
  store i64 %48, ptr %4, align 8
  store i32 1, ptr %9, align 4
  call void @llvm.lifetime.end.p0(i64 24, ptr %10) #19
  br label %49

49:                                               ; preds = %47, %13
  call void @llvm.lifetime.end.p0(i64 8, ptr %8) #19
  %50 = load i64, ptr %4, align 8
  ret i64 %50

51:                                               ; preds = %15
  %52 = landingpad { ptr, i32 }
          catch ptr null
  %53 = extractvalue { ptr, i32 } %52, 0
  call void @__clang_call_terminate(ptr %53) #18
  unreachable
}